; Function Attrs: nounwind uwtable
define dso_local noalias noundef nonnull ptr @xrealloc(ptr noundef captures(none) %0, i64 noundef %1) local_unnamed_addr #0 {
  %.not = icmp eq i64 %1, 0
  br i1 %.not, label %3, label %12

3:                                                ; preds = %2
  tail call void @free(ptr noundef %0) #20
  %4 = load i64, ptr @memory_limit_check.limit, align 8, !tbaa !4
  %.not.i.i.i = icmp eq i64 %4, 0
  br i1 %.not.i.i.i, label %5, label %7

5:                                                ; preds = %3
  %6 = tail call i64 @git_env_ulong(ptr noundef nonnull @.str.31, i64 noundef 0) #20
  %.not7.i.i.i = icmp eq i64 %6, 0
  %spec.store.select.i.i.i = select i1 %.not7.i.i.i, i64 -1, i64 %6
  store i64 %spec.store.select.i.i.i, ptr @memory_limit_check.limit, align 8
  br label %7

7:                                                ; preds = %5, %3
  %8 = tail call noalias ptr @malloc(i64 noundef 0) #22
  %.not13 = icmp eq ptr %8, null
  br i1 %.not13, label %9, label %xmalloc.exit

9:                                                ; preds = %7
  %10 = tail call noalias dereferenceable_or_null(1) ptr @malloc(i64 noundef 1) #22
  %.not12.i.i = icmp eq ptr %10, null
  br i1 %.not12.i.i, label %11, label %xmalloc.exit

11:                                               ; preds = %9
  tail call void (ptr, ...) @die(ptr noundef nonnull @.str.29, i64 noundef 0) #21
  unreachable

12:                                               ; preds = %2
  %13 = load i64, ptr @memory_limit_check.limit, align 8, !tbaa !4
  %.not.i = icmp eq i64 %13, 0
  br i1 %.not.i, label %14, label %16

14:                                               ; preds = %12
  %15 = tail call i64 @git_env_ulong(ptr noundef nonnull @.str.31, i64 noundef 0) #20
  %.not7.i = icmp eq i64 %15, 0
  %spec.store.select.i = select i1 %.not7.i, i64 -1, i64 %15
  store i64 %spec.store.select.i, ptr @memory_limit_check.limit, align 8
  br label %16

16:                                               ; preds = %14, %12
  %17 = phi i64 [ %spec.store.select.i, %14 ], [ %13, %12 ]
  %18 = icmp ugt i64 %1, %17
  br i1 %18, label %19, label %memory_limit_check.exit

19:                                               ; preds = %16
  tail call void (ptr, ...) @die(ptr noundef nonnull @.str.32, i64 noundef %1, i64 noundef %17) #21
  unreachable

memory_limit_check.exit:                          ; preds = %16
  %20 = tail call ptr @realloc(ptr noundef %0, i64 noundef %1) #24
  %.not9 = icmp eq ptr %20, null
  br i1 %.not9, label %21, label %xmalloc.exit

21:                                               ; preds = %memory_limit_check.exit
  tail call void (ptr, ...) @die(ptr noundef nonnull @.str.1) #21
  unreachable

xmalloc.exit:                                     ; preds = %7, %9, %memory_limit_check.exit
  %.0 = phi ptr [ %20, %memory_limit_check.exit ], [ %10, %9 ], [ %8, %7 ]
  ret ptr %.0
}